target datalayout = "e-m:e-p270:32:32-p271:32:32-p272:64:64-i64:64-i128:128-f80:128-n8:16:32:64-S128"
target triple = "x86_64-pc-linux-gnu"

%class.QString = type { %struct.QArrayDataPointer }
%struct.QArrayDataPointer = type { ptr, ptr, i64 }
%class.WiresharkDialog = type <{ %class.GeometryStateDialog, ptr, i8, [7 x i8], %class.QString, %class.QList, i32, i8, [3 x i8] }>
%class.GeometryStateDialog = type { %class.QDialog, %class.QString, ptr }
%class.QDialog = type { %class.QWidget }
%class.QWidget = type { %class.QObject, %class.QPaintDevice.base, ptr }
%class.QObject = type { ptr, %class.QScopedPointer }
%class.QScopedPointer = type { ptr }
%class.QPaintDevice.base = type <{ ptr, i16 }>
%class.QList = type { %struct.QArrayDataPointer.0 }
%struct.QArrayDataPointer.0 = type { ptr, ptr, i64 }

; Function Attrs: mustprogress nounwind null_pointer_is_valid sspstrong uwtable
define void @_ZN15WiresharkDialog17beginRetapPacketsEv(ptr noundef align 8 dereferenceable_or_null(141) %0) #2 align 2 {
  %2 = alloca ptr, align 8
  store ptr %0, ptr %2, align 8
  %3 = load ptr, ptr %2, align 8
  %4 = getelementptr inbounds nuw %class.WiresharkDialog, ptr %3, i32 0, i32 6
  %5 = load i32, ptr %4, align 8
  %6 = add i32 %5, 1
  store i32 %6, ptr %4, align 8
  ret void
}

; Function Attrs: mustprogress null_pointer_is_valid sspstrong uwtable
define void @_ZN15WiresharkDialog12captureEventE12CaptureEvent(ptr noundef align 8 dereferenceable_or_null(141) %0, ptr noundef %1) #0 align 2 {
  %3 = alloca ptr, align 8
  %4 = alloca ptr, align 8
  store ptr %0, ptr %3, align 8
  store ptr %1, ptr %4, align 8
  %5 = load ptr, ptr %3, align 8
  %6 = call noundef i32 @_ZNK12CaptureEvent14captureContextEv(ptr noundef align 8 dereferenceable_or_null(40) %1)
  switch i32 %6, label %29 [
    i32 2050, label %7
    i32 2, label %16
  ]

7:                                                ; preds = %2
  %8 = call noundef i32 @_ZNK12CaptureEvent9eventTypeEv(ptr noundef align 8 dereferenceable_or_null(40) %1)
  switch i32 %8, label %14 [
    i32 2, label %9
    i32 4, label %10
  ]

9:                                                ; preds = %7
  call void @_ZN15WiresharkDialog17beginRetapPacketsEv(ptr noundef align 8 dereferenceable_or_null(141) %5)
  br label %15

10:                                               ; preds = %7
  %11 = load ptr, ptr %5, align 8
  %12 = getelementptr inbounds ptr, ptr %11, i64 57
  %13 = load ptr, ptr %12, align 8
  call void %13(ptr noundef align 8 dereferenceable_or_null(141) %5)
  br label %15

14:                                               ; preds = %7
  br label %15

15:                                               ; preds = %14, %10, %9
  br label %30

16:                                               ; preds = %2
  %17 = call noundef i32 @_ZNK12CaptureEvent9eventTypeEv(ptr noundef align 8 dereferenceable_or_null(40) %1)
  switch i32 %17, label %27 [
    i32 8, label %18
    i32 16, label %22
  ]

18:                                               ; preds = %16
  %19 = load ptr, ptr %5, align 8
  %20 = getelementptr inbounds ptr, ptr %19, i64 60
  %21 = load ptr, ptr %20, align 8
  call void %21(ptr noundef align 8 dereferenceable_or_null(141) %5)
  br label %28

22:                                               ; preds = %16
  %23 = getelementptr inbounds nuw %class.WiresharkDialog, ptr %5, i32 0, i32 2
  store i8 1, ptr %23, align 8
  %24 = load ptr, ptr %5, align 8
  %25 = getelementptr inbounds ptr, ptr %24, i64 61
  %26 = load ptr, ptr %25, align 8
  call void %26(ptr noundef align 8 dereferenceable_or_null(141) %5)
  br label %28

27:                                               ; preds = %16
  br label %28

28:                                               ; preds = %27, %22, %18
  br label %30

29:                                               ; preds = %2
  br label %30

30:                                               ; preds = %29, %28, %15
  ret void
}