; Function Attrs: mustprogress null_pointer_is_valid sspstrong uwtable
define void @_ZN15WiresharkDialog12captureEventE12CaptureEvent(ptr noundef align 8 dereferenceable_or_null(141) %0, ptr noundef %1) #0 align 2 {
  %3 = tail call noundef i32 @_ZNK12CaptureEvent14captureContextEv(ptr noundef align 8 dereferenceable_or_null(40) %1)
  switch i32 %3, label %25 [
    i32 2050, label %4
    i32 2, label %14
  ]

4:                                                ; preds = %2
  %5 = tail call noundef i32 @_ZNK12CaptureEvent9eventTypeEv(ptr noundef align 8 dereferenceable_or_null(40) %1)
  switch i32 %5, label %25 [
    i32 2, label %6
    i32 4, label %10
  ]

6:                                                ; preds = %4
  %7 = getelementptr inbounds nuw i8, ptr %0, i64 136
  %8 = load i32, ptr %7, align 8
  %9 = add i32 %8, 1
  store i32 %9, ptr %7, align 8
  br label %25

10:                                               ; preds = %4
  %11 = load ptr, ptr %0, align 8
  %12 = getelementptr inbounds nuw i8, ptr %11, i64 456
  %13 = load ptr, ptr %12, align 8
  tail call void %13(ptr noundef align 8 dereferenceable_or_null(141) %0)
  br label %25

14:                                               ; preds = %2
  %15 = tail call noundef i32 @_ZNK12CaptureEvent9eventTypeEv(ptr noundef align 8 dereferenceable_or_null(40) %1)
  switch i32 %15, label %25 [
    i32 8, label %16
    i32 16, label %20
  ]

16:                                               ; preds = %14
  %17 = load ptr, ptr %0, align 8
  %18 = getelementptr inbounds nuw i8, ptr %17, i64 480
  %19 = load ptr, ptr %18, align 8
  tail call void %19(ptr noundef align 8 dereferenceable_or_null(141) %0)
  br label %25

20:                                               ; preds = %14
  %21 = getelementptr inbounds nuw i8, ptr %0, i64 80
  store i8 1, ptr %21, align 8
  %22 = load ptr, ptr %0, align 8
  %23 = getelementptr inbounds nuw i8, ptr %22, i64 488
  %24 = load ptr, ptr %23, align 8
  tail call void %24(ptr noundef align 8 dereferenceable_or_null(141) %0)
  br label %25

25:                                               ; preds = %2, %16, %20, %14, %6, %10, %4
  ret void
}